target datalayout = "e-m:e-p270:32:32-p271:32:32-p272:64:64-i64:64-i128:128-f80:128-n8:16:32:64-S128"
target triple = "x86_64-pc-linux-gnu"

%struct.job_info = type { ptr, i64, ptr, ptr, i32, ptr, i32, i32, i32, ptr, i32, ptr, i16, ptr, i64, i16, ptr, ptr, ptr, ptr, ptr, ptr, ptr, ptr, i16, i16, i16, double, i16, i32, i32, i32, ptr, ptr, i64, i32, ptr, i32, i64, i64, ptr, ptr, i32, ptr, ptr, ptr, ptr, i64, ptr, i64, ptr, i32, ptr, ptr, i32, i32, ptr, i32, i32, ptr, ptr, i32, i64, ptr, i16, ptr, i32, i32, ptr, ptr, ptr, ptr, ptr, i32, ptr, i16, i16, i16, i16, i16, i32, i32, i32, i16, ptr, ptr, i64, i16, i32, i64, i64, i64, i32, ptr, ptr, i32, ptr, i8, ptr, ptr, i32, i16, i64, i16, ptr, ptr, ptr, ptr, i16, i32, i16, i16, i64, i16, ptr, i32, ptr, ptr, ptr, i16, i64, i64, ptr, i32, i32, i16, ptr, ptr, ptr, ptr, ptr, ptr, ptr, ptr, i32, ptr, i32, ptr, ptr }
%struct.node_info_msg = type { i64, i32, ptr }
%struct.node_info = type { ptr, ptr, i16, i64, ptr, i16, i16, i32, i32, i64, i16, i16, ptr, ptr, ptr, ptr, ptr, ptr, ptr, ptr, ptr, ptr, i64, ptr, i64, ptr, i32, ptr, ptr, i32, ptr, i32, ptr, i16, i64, i16, ptr, ptr, ptr, i64, i32, i64, ptr, ptr, i64, i16, i16, i32, i32, ptr, ptr }

@federation_flag = external global i32, align 4
@local_flag = external global i32, align 4
@stdout = external global ptr, align 8
@.str.6 = private unnamed_addr constant [10 x i8] c"JobId=%u \00", align 1
@.str.7 = private unnamed_addr constant [12 x i8] c"EndTime=%s \00", align 1
@.str.8 = private unnamed_addr constant [19 x i8] c"CompletingTime=%s \00", align 1
@.str.9 = private unnamed_addr constant [22 x i8] c"Nodes(COMPLETING)=%s \00", align 1
@.str.10 = private unnamed_addr constant [16 x i8] c"Nodes(DOWN)=%s \00", align 1
@.str.11 = private unnamed_addr constant [2 x i8] c"\0A\00", align 1

; Function Attrs: nounwind uwtable
define dso_local void @scontrol_print_completing_job(ptr noundef %0, ptr noundef %1) #0 {
  %3 = alloca ptr, align 8
  %4 = alloca ptr, align 8
  %5 = alloca i32, align 4
  %6 = alloca i32, align 4
  %7 = alloca ptr, align 8
  %8 = alloca ptr, align 8
  %9 = alloca ptr, align 8
  %10 = alloca ptr, align 8
  %11 = alloca [256 x i8], align 16
  %12 = alloca i64, align 8
  %13 = alloca i32, align 4
  %14 = alloca i32, align 4
  %15 = alloca i32, align 4
  store ptr %0, ptr %3, align 8
  store ptr %1, ptr %4, align 8
  call void @llvm.lifetime.start.p0(i64 4, ptr %5) #9
  call void @llvm.lifetime.start.p0(i64 4, ptr %6) #9
  store i32 0, ptr %6, align 4
  call void @llvm.lifetime.start.p0(i64 8, ptr %7) #9
  call void @llvm.lifetime.start.p0(i64 8, ptr %8) #9
  call void @llvm.lifetime.start.p0(i64 8, ptr %9) #9
  call void @llvm.lifetime.start.p0(i64 8, ptr %10) #9
  call void @llvm.lifetime.start.p0(i64 256, ptr %11) #9
  call void @llvm.lifetime.start.p0(i64 8, ptr %12) #9
  store i64 0, ptr %12, align 8
  %16 = call ptr @hostlist_create(ptr noundef null)
  store ptr %16, ptr %8, align 8
  %17 = call ptr @hostlist_create(ptr noundef null)
  store ptr %17, ptr %9, align 8
  %18 = load ptr, ptr %3, align 8
  %19 = getelementptr inbounds nuw %struct.job_info, ptr %18, i32 0, i32 18
  %20 = load ptr, ptr %19, align 8
  %21 = icmp ne ptr %20, null
  br i1 %21, label %22, label %34

22:                                               ; preds = %2
  %23 = load i32, ptr @federation_flag, align 4
  %24 = icmp ne i32 %23, 0
  br i1 %24, label %25, label %34

25:                                               ; preds = %22
  %26 = load i32, ptr @local_flag, align 4
  %27 = icmp ne i32 %26, 0
  br i1 %27, label %34, label %28

28:                                               ; preds = %25
  %29 = load ptr, ptr %3, align 8
  %30 = getelementptr inbounds nuw %struct.job_info, ptr %29, i32 0, i32 18
  %31 = load ptr, ptr %30, align 8
  %32 = load ptr, ptr %4, align 8
  %33 = call i32 @get_cluster_node_offset(ptr noundef %31, ptr noundef %32)
  store i32 %33, ptr %6, align 4
  br label %34

34:                                               ; preds = %28, %25, %22, %2
  store i32 0, ptr %5, align 4
  br label %35

35:                                               ; preds = %113, %34
  %36 = load ptr, ptr %3, align 8
  %37 = getelementptr inbounds nuw %struct.job_info, ptr %36, i32 0, i32 74
  %38 = load ptr, ptr %37, align 8
  %39 = load i32, ptr %5, align 4
  %40 = sext i32 %39 to i64
  %41 = getelementptr inbounds i32, ptr %38, i64 %40
  %42 = load i32, ptr %41, align 4
  %43 = icmp ne i32 %42, -1
  br i1 %43, label %44, label %116

44:                                               ; preds = %35
  call void @llvm.lifetime.start.p0(i64 4, ptr %13) #9
  %45 = load ptr, ptr %3, align 8
  %46 = getelementptr inbounds nuw %struct.job_info, ptr %45, i32 0, i32 74
  %47 = load ptr, ptr %46, align 8
  %48 = load i32, ptr %5, align 4
  %49 = sext i32 %48 to i64
  %50 = getelementptr inbounds i32, ptr %47, i64 %49
  %51 = load i32, ptr %50, align 4
  store i32 %51, ptr %13, align 4
  br label %52

52:                                               ; preds = %109, %44
  %53 = load i32, ptr %13, align 4
  %54 = load ptr, ptr %3, align 8
  %55 = getelementptr inbounds nuw %struct.job_info, ptr %54, i32 0, i32 74
  %56 = load ptr, ptr %55, align 8
  %57 = load i32, ptr %5, align 4
  %58 = add nsw i32 %57, 1
  %59 = sext i32 %58 to i64
  %60 = getelementptr inbounds i32, ptr %56, i64 %59
  %61 = load i32, ptr %60, align 4
  %62 = icmp sle i32 %53, %61
  br i1 %62, label %63, label %112

63:                                               ; preds = %52
  call void @llvm.lifetime.start.p0(i64 4, ptr %14) #9
  %64 = load i32, ptr %13, align 4
  %65 = load i32, ptr %6, align 4
  %66 = add nsw i32 %64, %65
  store i32 %66, ptr %14, align 4
  %67 = load i32, ptr %14, align 4
  %68 = load ptr, ptr %4, align 8
  %69 = getelementptr inbounds nuw %struct.node_info_msg, ptr %68, i32 0, i32 1
  %70 = load i32, ptr %69, align 8
  %71 = icmp uge i32 %67, %70
  br i1 %71, label %72, label %73

72:                                               ; preds = %63
  store i32 5, ptr %15, align 4
  br label %106

73:                                               ; preds = %63
  %74 = load ptr, ptr %4, align 8
  %75 = getelementptr inbounds nuw %struct.node_info_msg, ptr %74, i32 0, i32 2
  %76 = load ptr, ptr %75, align 8
  %77 = load i32, ptr %14, align 4
  %78 = sext i32 %77 to i64
  %79 = getelementptr inbounds %struct.node_info, ptr %76, i64 %78
  store ptr %79, ptr %7, align 8
  %80 = load ptr, ptr %7, align 8
  %81 = getelementptr inbounds nuw %struct.node_info, ptr %80, i32 0, i32 29
  %82 = load i32, ptr %81, align 8
  %83 = zext i32 %82 to i64
  %84 = and i64 %83, 1024
  %85 = icmp ne i64 %84, 0
  br i1 %85, label %86, label %92

86:                                               ; preds = %73
  %87 = load ptr, ptr %8, align 8
  %88 = load ptr, ptr %7, align 8
  %89 = getelementptr inbounds nuw %struct.node_info, ptr %88, i32 0, i32 25
  %90 = load ptr, ptr %89, align 8
  %91 = call i32 @hostlist_push_host(ptr noundef %87, ptr noundef %90)
  br label %105

92:                                               ; preds = %73
  %93 = load ptr, ptr %7, align 8
  %94 = getelementptr inbounds nuw %struct.node_info, ptr %93, i32 0, i32 29
  %95 = load i32, ptr %94, align 8
  %96 = and i32 %95, 15
  %97 = icmp eq i32 %96, 1
  br i1 %97, label %98, label %104

98:                                               ; preds = %92
  %99 = load ptr, ptr %9, align 8
  %100 = load ptr, ptr %7, align 8
  %101 = getelementptr inbounds nuw %struct.node_info, ptr %100, i32 0, i32 25
  %102 = load ptr, ptr %101, align 8
  %103 = call i32 @hostlist_push_host(ptr noundef %99, ptr noundef %102)
  br label %104

104:                                              ; preds = %98, %92
  br label %105

105:                                              ; preds = %104, %86
  store i32 0, ptr %15, align 4
  br label %106

106:                                              ; preds = %105, %72
  call void @llvm.lifetime.end.p0(i64 4, ptr %14) #9
  %107 = load i32, ptr %15, align 4
  switch i32 %107, label %174 [
    i32 0, label %108
    i32 5, label %112
  ]

108:                                              ; preds = %106
  br label %109

109:                                              ; preds = %108
  %110 = load i32, ptr %13, align 4
  %111 = add nsw i32 %110, 1
  store i32 %111, ptr %13, align 4
  br label %52, !llvm.loop !11

112:                                              ; preds = %106, %52
  call void @llvm.lifetime.end.p0(i64 4, ptr %13) #9
  br label %113

113:                                              ; preds = %112
  %114 = load i32, ptr %5, align 4
  %115 = add nsw i32 %114, 2
  store i32 %115, ptr %5, align 4
  br label %35, !llvm.loop !12

116:                                              ; preds = %35
  %117 = load ptr, ptr @stdout, align 8
  %118 = load ptr, ptr %3, align 8
  %119 = getelementptr inbounds nuw %struct.job_info, ptr %118, i32 0, i32 58
  %120 = load i32, ptr %119, align 4
  %121 = call i32 (ptr, ptr, ...) @fprintf(ptr noundef %117, ptr noundef @.str.6, i32 noundef %120) #9
  %122 = load ptr, ptr %3, align 8
  %123 = getelementptr inbounds nuw %struct.job_info, ptr %122, i32 0, i32 39
  %124 = getelementptr inbounds [256 x i8], ptr %11, i64 0, i64 0
  call void @slurm_make_time_str(ptr noundef %123, ptr noundef %124, i32 noundef 256)
  %125 = load ptr, ptr @stdout, align 8
  %126 = getelementptr inbounds [256 x i8], ptr %11, i64 0, i64 0
  %127 = call i32 (ptr, ptr, ...) @fprintf(ptr noundef %125, ptr noundef @.str.7, ptr noundef %126) #9
  %128 = call i64 @time(ptr noundef null) #9
  %129 = load ptr, ptr %3, align 8
  %130 = getelementptr inbounds nuw %struct.job_info, ptr %129, i32 0, i32 39
  %131 = load i64, ptr %130, align 8
  %132 = sub nsw i64 %128, %131
  store i64 %132, ptr %12, align 8
  %133 = load i64, ptr %12, align 8
  %134 = getelementptr inbounds [256 x i8], ptr %11, i64 0, i64 0
  call void @secs2time_str(i64 noundef %133, ptr noundef %134, i32 noundef 256)
  %135 = load ptr, ptr @stdout, align 8
  %136 = getelementptr inbounds [256 x i8], ptr %11, i64 0, i64 0
  %137 = call i32 (ptr, ptr, ...) @fprintf(ptr noundef %135, ptr noundef @.str.8, ptr noundef %136) #9
  %138 = load ptr, ptr %8, align 8
  call void @hostlist_sort(ptr noundef %138)
  %139 = load ptr, ptr %9, align 8
  call void @hostlist_sort(ptr noundef %139)
  %140 = load ptr, ptr %8, align 8
  %141 = call ptr @hostlist_ranged_string_xmalloc(ptr noundef %140)
  store ptr %141, ptr %10, align 8
  %142 = load ptr, ptr %10, align 8
  %143 = icmp ne ptr %142, null
  br i1 %143, label %144, label %154

144:                                              ; preds = %116
  %145 = load ptr, ptr %10, align 8
  %146 = getelementptr inbounds i8, ptr %145, i64 0
  %147 = load i8, ptr %146, align 1
  %148 = sext i8 %147 to i32
  %149 = icmp ne i32 %148, 0
  br i1 %149, label %150, label %154

150:                                              ; preds = %144
  %151 = load ptr, ptr @stdout, align 8
  %152 = load ptr, ptr %10, align 8
  %153 = call i32 (ptr, ptr, ...) @fprintf(ptr noundef %151, ptr noundef @.str.9, ptr noundef %152) #9
  br label %154

154:                                              ; preds = %150, %144, %116
  call void @slurm_xfree(ptr noundef %10)
  %155 = load ptr, ptr %9, align 8
  %156 = call ptr @hostlist_ranged_string_xmalloc(ptr noundef %155)
  store ptr %156, ptr %10, align 8
  %157 = load ptr, ptr %10, align 8
  %158 = icmp ne ptr %157, null
  br i1 %158, label %159, label %169

159:                                              ; preds = %154
  %160 = load ptr, ptr %10, align 8
  %161 = getelementptr inbounds i8, ptr %160, i64 0
  %162 = load i8, ptr %161, align 1
  %163 = sext i8 %162 to i32
  %164 = icmp ne i32 %163, 0
  br i1 %164, label %165, label %169

165:                                              ; preds = %159
  %166 = load ptr, ptr @stdout, align 8
  %167 = load ptr, ptr %10, align 8
  %168 = call i32 (ptr, ptr, ...) @fprintf(ptr noundef %166, ptr noundef @.str.10, ptr noundef %167) #9
  br label %169

169:                                              ; preds = %165, %159, %154
  call void @slurm_xfree(ptr noundef %10)
  %170 = load ptr, ptr @stdout, align 8
  %171 = call i32 (ptr, ptr, ...) @fprintf(ptr noundef %170, ptr noundef @.str.11) #9
  %172 = load ptr, ptr %8, align 8
  call void @hostlist_destroy(ptr noundef %172)
  %173 = load ptr, ptr %9, align 8
  call void @hostlist_destroy(ptr noundef %173)
  call void @llvm.lifetime.end.p0(i64 8, ptr %12) #9
  call void @llvm.lifetime.end.p0(i64 256, ptr %11) #9
  call void @llvm.lifetime.end.p0(i64 8, ptr %10) #9
  call void @llvm.lifetime.end.p0(i64 8, ptr %9) #9
  call void @llvm.lifetime.end.p0(i64 8, ptr %8) #9
  call void @llvm.lifetime.end.p0(i64 8, ptr %7) #9
  call void @llvm.lifetime.end.p0(i64 4, ptr %6) #9
  call void @llvm.lifetime.end.p0(i64 4, ptr %5) #9
  ret void

174:                                              ; preds = %106
  unreachable
}