; Function Attrs: nounwind uwtable
define dso_local void @scontrol_print_completing_job(ptr noundef %0, ptr noundef %1) local_unnamed_addr #0 {
  %3 = alloca ptr, align 8
  %4 = alloca [256 x i8], align 16
  call void @llvm.lifetime.start.p0(i64 8, ptr nonnull %3) #16
  call void @llvm.lifetime.start.p0(i64 256, ptr nonnull %4) #16
  %5 = tail call ptr @hostlist_create(ptr noundef null) #16
  %6 = tail call ptr @hostlist_create(ptr noundef null) #16
  %7 = getelementptr inbounds nuw i8, ptr %0, i64 136
  %8 = load ptr, ptr %7, align 8
  %9 = icmp eq ptr %8, null
  %10 = load i32, ptr @federation_flag, align 4
  %11 = icmp eq i32 %10, 0
  %or.cond.not45 = select i1 %9, i1 true, i1 %11
  %12 = load i32, ptr @local_flag, align 4
  %13 = icmp ne i32 %12, 0
  %or.cond3 = select i1 %or.cond.not45, i1 true, i1 %13
  br i1 %or.cond3, label %17, label %14

14:                                               ; preds = %2
  %15 = tail call i32 @get_cluster_node_offset(ptr noundef nonnull %8, ptr noundef %1) #16
  %16 = sext i32 %15 to i64
  br label %17

17:                                               ; preds = %14, %2
  %.039 = phi i64 [ 0, %2 ], [ %16, %14 ]
  %18 = getelementptr inbounds nuw i8, ptr %0, i64 528
  %19 = load ptr, ptr %18, align 8
  %20 = load i32, ptr %19, align 4
  %.not58 = icmp eq i32 %20, -1
  br i1 %.not58, label %._crit_edge60, label %.preheader.lr.ph

.preheader.lr.ph:                                 ; preds = %17
  %21 = getelementptr inbounds nuw i8, ptr %1, i64 8
  %22 = getelementptr inbounds nuw i8, ptr %1, i64 16
  %invariant.op = add i64 1, %.039
  br label %.preheader

.preheader:                                       ; preds = %.preheader.lr.ph, %._crit_edge
  %23 = phi ptr [ %19, %.preheader.lr.ph ], [ %51, %._crit_edge ]
  %indvars.iv62 = phi i64 [ 0, %.preheader.lr.ph ], [ %indvars.iv.next63, %._crit_edge ]
  %24 = phi i32 [ %20, %.preheader.lr.ph ], [ %53, %._crit_edge ]
  %25 = or disjoint i64 %indvars.iv62, 1
  %26 = getelementptr inbounds nuw i32, ptr %23, i64 %25
  %27 = load i32, ptr %26, align 4
  %.not5055 = icmp sgt i32 %24, %27
  br i1 %.not5055, label %._crit_edge, label %.lr.ph.preheader

.lr.ph.preheader:                                 ; preds = %.preheader
  %28 = sext i32 %24 to i64
  %29 = add nsw i64 %.039, %28
  %30 = load i32, ptr %21, align 8
  %31 = trunc nsw i64 %29 to i32
  %.not5167 = icmp ugt i32 %30, %31
  br i1 %.not5167, label %.lr.ph69, label %._crit_edge

.lr.ph:                                           ; preds = %46
  %indvars.iv.next = add nsw i64 %indvars.iv68, 1
  %.reass = add i64 %indvars.iv68, %invariant.op
  %32 = load i32, ptr %21, align 8
  %33 = trunc nsw i64 %.reass to i32
  %.not51 = icmp ugt i32 %32, %33
  br i1 %.not51, label %.lr.ph69, label %._crit_edge, !llvm.loop !11

.lr.ph69:                                         ; preds = %.lr.ph.preheader, %.lr.ph
  %34 = phi i64 [ %.reass, %.lr.ph ], [ %29, %.lr.ph.preheader ]
  %indvars.iv68 = phi i64 [ %indvars.iv.next, %.lr.ph ], [ %28, %.lr.ph.preheader ]
  %35 = load ptr, ptr %22, align 8
  %36 = getelementptr inbounds %struct.node_info, ptr %35, i64 %34
  %37 = getelementptr inbounds nuw i8, ptr %36, i64 208
  %38 = load i32, ptr %37, align 8
  %39 = and i32 %38, 1024
  %.not52 = icmp eq i32 %39, 0
  br i1 %.not52, label %40, label %.sink.split

40:                                               ; preds = %.lr.ph69
  %41 = and i32 %38, 15
  %42 = icmp eq i32 %41, 1
  br i1 %42, label %.sink.split, label %46

.sink.split:                                      ; preds = %40, %.lr.ph69
  %.sink = phi ptr [ %5, %.lr.ph69 ], [ %6, %40 ]
  %43 = getelementptr inbounds nuw i8, ptr %36, i64 176
  %44 = load ptr, ptr %43, align 8
  %45 = tail call i32 @hostlist_push_host(ptr noundef %.sink, ptr noundef %44) #16
  br label %46

46:                                               ; preds = %.sink.split, %40
  %47 = load ptr, ptr %18, align 8
  %48 = getelementptr inbounds nuw i32, ptr %47, i64 %25
  %49 = load i32, ptr %48, align 4
  %50 = sext i32 %49 to i64
  %.not50.not = icmp slt i64 %indvars.iv68, %50
  br i1 %.not50.not, label %.lr.ph, label %._crit_edge, !llvm.loop !11

._crit_edge:                                      ; preds = %.lr.ph, %46, %.lr.ph.preheader, %.preheader
  %51 = phi ptr [ %23, %.preheader ], [ %23, %.lr.ph.preheader ], [ %47, %46 ], [ %47, %.lr.ph ]
  %indvars.iv.next63 = add nuw nsw i64 %indvars.iv62, 2
  %52 = getelementptr inbounds nuw i32, ptr %51, i64 %indvars.iv.next63
  %53 = load i32, ptr %52, align 4
  %.not = icmp eq i32 %53, -1
  br i1 %.not, label %._crit_edge60, label %.preheader, !llvm.loop !12

._crit_edge60:                                    ; preds = %._crit_edge, %17
  %54 = load ptr, ptr @stdout, align 8
  %55 = getelementptr inbounds nuw i8, ptr %0, i64 412
  %56 = load i32, ptr %55, align 4
  %57 = tail call i32 (ptr, ptr, ...) @fprintf(ptr noundef %54, ptr noundef nonnull @.str.6, i32 noundef %56) #16
  %58 = getelementptr inbounds nuw i8, ptr %0, i64 272
  call void @slurm_make_time_str(ptr noundef nonnull %58, ptr noundef nonnull %4, i32 noundef 256) #16
  %59 = load ptr, ptr @stdout, align 8
  %60 = call i32 (ptr, ptr, ...) @fprintf(ptr noundef %59, ptr noundef nonnull @.str.7, ptr noundef nonnull %4) #16
  %61 = call i64 @time(ptr noundef null) #16
  %62 = load i64, ptr %58, align 8
  %63 = sub nsw i64 %61, %62
  call void @secs2time_str(i64 noundef %63, ptr noundef nonnull %4, i32 noundef 256) #16
  %64 = load ptr, ptr @stdout, align 8
  %65 = call i32 (ptr, ptr, ...) @fprintf(ptr noundef %64, ptr noundef nonnull @.str.8, ptr noundef nonnull %4) #16
  call void @hostlist_sort(ptr noundef %5) #16
  call void @hostlist_sort(ptr noundef %6) #16
  %66 = call ptr @hostlist_ranged_string_xmalloc(ptr noundef %5) #16
  store ptr %66, ptr %3, align 8
  %.not46 = icmp eq ptr %66, null
  br i1 %.not46, label %72, label %67

67:                                               ; preds = %._crit_edge60
  %68 = load i8, ptr %66, align 1
  %.not47 = icmp eq i8 %68, 0
  br i1 %.not47, label %72, label %69

69:                                               ; preds = %67
  %70 = load ptr, ptr @stdout, align 8
  %71 = call i32 (ptr, ptr, ...) @fprintf(ptr noundef %70, ptr noundef nonnull @.str.9, ptr noundef nonnull %66) #16
  br label %72

72:                                               ; preds = %69, %67, %._crit_edge60
  call void @slurm_xfree(ptr noundef nonnull %3) #16
  %73 = call ptr @hostlist_ranged_string_xmalloc(ptr noundef %6) #16
  store ptr %73, ptr %3, align 8
  %.not48 = icmp eq ptr %73, null
  br i1 %.not48, label %79, label %74

74:                                               ; preds = %72
  %75 = load i8, ptr %73, align 1
  %.not49 = icmp eq i8 %75, 0
  br i1 %.not49, label %79, label %76

76:                                               ; preds = %74
  %77 = load ptr, ptr @stdout, align 8
  %78 = call i32 (ptr, ptr, ...) @fprintf(ptr noundef %77, ptr noundef nonnull @.str.10, ptr noundef nonnull %73) #16
  br label %79

79:                                               ; preds = %76, %74, %72
  call void @slurm_xfree(ptr noundef nonnull %3) #16
  %80 = load ptr, ptr @stdout, align 8
  %fputc = call i32 @fputc(i32 10, ptr %80)
  call void @hostlist_destroy(ptr noundef %5) #16
  call void @hostlist_destroy(ptr noundef %6) #16
  call void @llvm.lifetime.end.p0(i64 256, ptr nonnull %4) #16
  call void @llvm.lifetime.end.p0(i64 8, ptr nonnull %3) #16
  ret void
}